target datalayout = "e-m:e-p270:32:32-p271:32:32-p272:64:64-i64:64-i128:128-f80:128-n8:16:32:64-S128"
target triple = "x86_64-pc-linux-gnu"

%"struct.Luau::Position" = type { i32, i32 }
%"struct.Luau::AnyTypeSummary::FindReturnAncestry" = type <{ %"class.Luau::AstVisitor", ptr, ptr, %"struct.Luau::Position", i8, [7 x i8] }>
%"class.Luau::AstVisitor" = type { ptr }

; Function Attrs: inlinehint mustprogress nounwind uwtable
define linkonce_odr dso_local void @_ZN4Luau10AstVisitorC2Ev(ptr noundef nonnull align 8 dereferenceable(8) %0) unnamed_addr #3 comdat align 2 {
  %2 = alloca ptr, align 8
  store ptr %0, ptr %2, align 8, !tbaa !499
  %3 = load ptr, ptr %2, align 8
  store ptr getelementptr inbounds inrange(-16, 496) ({ [64 x ptr] }, ptr @_ZTVN4Luau10AstVisitorE, i32 0, i32 0, i32 2), ptr %3, align 8, !tbaa !297
  ret void
}

; Function Attrs: mustprogress nounwind uwtable
define dso_local void @_ZN4Luau14AnyTypeSummary18FindReturnAncestryC2EPNS_7AstNodeENS_8PositionE(ptr noundef nonnull align 8 dereferenceable(40) %0, ptr noundef %1, i64 %2) unnamed_addr #2 align 2 {
  %4 = alloca %"struct.Luau::Position", align 4
  %5 = alloca ptr, align 8
  %6 = alloca ptr, align 8
  store i64 %2, ptr %4, align 4
  store ptr %0, ptr %5, align 8, !tbaa !486
  store ptr %1, ptr %6, align 8, !tbaa !99
  %7 = load ptr, ptr %5, align 8
  call void @_ZN4Luau10AstVisitorC2Ev(ptr noundef nonnull align 8 dereferenceable(8) %7) #4
  store ptr getelementptr inbounds inrange(-16, 496) ({ [64 x ptr] }, ptr @_ZTVN4Luau14AnyTypeSummary18FindReturnAncestryE, i32 0, i32 0, i32 2), ptr %7, align 8, !tbaa !297
  %8 = getelementptr inbounds nuw %"struct.Luau::AnyTypeSummary::FindReturnAncestry", ptr %7, i32 0, i32 1
  store ptr null, ptr %8, align 8, !tbaa !299
  %9 = getelementptr inbounds nuw %"struct.Luau::AnyTypeSummary::FindReturnAncestry", ptr %7, i32 0, i32 2
  %10 = load ptr, ptr %6, align 8, !tbaa !99
  store ptr %10, ptr %9, align 8, !tbaa !489
  %11 = getelementptr inbounds nuw %"struct.Luau::AnyTypeSummary::FindReturnAncestry", ptr %7, i32 0, i32 3
  call void @llvm.memcpy.p0.p0.i64(ptr align 8 %11, ptr align 4 %4, i64 8, i1 false), !tbaa.struct !296
  %12 = getelementptr inbounds nuw %"struct.Luau::AnyTypeSummary::FindReturnAncestry", ptr %7, i32 0, i32 4
  store i8 0, ptr %12, align 8, !tbaa !488
  ret void
}