; Function Attrs: mustprogress nofree norecurse nosync nounwind willreturn memory(argmem: write) uwtable
define dso_local void @_ZN4Luau14AnyTypeSummary18FindReturnAncestryC2EPNS_7AstNodeENS_8PositionE(ptr noundef nonnull writeonly align 8 captures(none) dereferenceable(40) initializes((0, 33)) %0, ptr noundef %1, i64 %2) unnamed_addr #15 align 2 {
  store ptr getelementptr inbounds nuw inrange(-16, 496) (i8, ptr @_ZTVN4Luau14AnyTypeSummary18FindReturnAncestryE, i64 16), ptr %0, align 8, !tbaa !59
  %4 = getelementptr inbounds nuw i8, ptr %0, i64 8
  store ptr null, ptr %4, align 8, !tbaa !102
  %5 = getelementptr inbounds nuw i8, ptr %0, i64 16
  store ptr %1, ptr %5, align 8, !tbaa !106
  %6 = getelementptr inbounds nuw i8, ptr %0, i64 24
  store i64 %2, ptr %6, align 8
  %7 = getelementptr inbounds nuw i8, ptr %0, i64 32
  store i8 0, ptr %7, align 8, !tbaa !107
  ret void
}